 0x000000000000000e (SONAME)             Library soname: [libquarksrc.so]
_ZdlPvS_ W
_ZN10Blockchain11addNewBlockE5Block T
_ZN10Blockchain14getLatestBlockEv T
_ZN10BlockchainC1ENSt7__cxx1112basic_stringIcSt11char_traitsIcESaIcEEES5_x T
_ZN10BlockchainC2ENSt7__cxx1112basic_stringIcSt11char_traitsIcESaIcEEES5_x T
_ZN5Block13calculateHashEv T
_ZN5BlockC1EOS_ W
_ZN5BlockC1ERKS_ W
_ZN5BlockC1ERyRNSt7__cxx1112basic_stringIcSt11char_traitsIcESaIcEEERN5utils4DataERPh T
_ZN5BlockC2EOS_ W
_ZN5BlockC2ERKS_ W
_ZN5BlockC2ERyRNSt7__cxx1112basic_stringIcSt11char_traitsIcESaIcEEERN5utils4DataERPh T
_ZN5BlockD1Ev W
_ZN5BlockD2Ev W
_ZN5utils12getTimestampB5cxx11Ev T
_ZN5utils4Data8toStringB5cxx11Ev T
_ZN5utils4DataaSERKS0_ W
_ZN5utils4DataC1EOS0_ W
_ZN5utils4DataC1ERKS0_ W
_ZN5utils4DataC1Ev W
_ZN5utils4DataC2EOS0_ W
_ZN5utils4DataC2ERKS0_ W
_ZN5utils4DataC2Ev W
_ZN5utils4DataD1Ev W
_ZN5utils4DataD2Ev W
_ZN9__gnu_cxx13new_allocatorI5BlockE10deallocateEPS1_m W
_ZN9__gnu_cxx13new_allocatorI5BlockE7destroyIS1_EEvPT_ W
_ZN9__gnu_cxx13new_allocatorI5BlockE8allocateEmPKv W
_ZN9__gnu_cxx13new_allocatorI5BlockE9constructIS1_JRKS1_EEEvPT_DpOT0_ W
_ZN9__gnu_cxx13new_allocatorI5BlockE9constructIS1_JS1_EEEvPT_DpOT0_ W
_ZN9__gnu_cxx13new_allocatorI5BlockEC1Ev W
_ZN9__gnu_cxx13new_allocatorI5BlockEC2Ev W
_ZN9__gnu_cxx13new_allocatorI5BlockED1Ev W
_ZN9__gnu_cxx13new_allocatorI5BlockED2Ev W
_ZN9__gnu_cxx17__normal_iteratorIP5BlockSt6vectorIS1_SaIS1_EEEC1ERKS2_ W
_ZN9__gnu_cxx17__normal_iteratorIP5BlockSt6vectorIS1_SaIS1_EEEC2ERKS2_ W
_ZN9__gnu_cxxmiIP5BlockSt6vectorIS1_SaIS1_EEEENS_17__normal_iteratorIT_T0_E15difference_typeERKS9_SC_ W
_ZNK9__gnu_cxx13new_allocatorI5BlockE11_M_max_sizeEv W
_ZNK9__gnu_cxx13new_allocatorI5BlockE8max_sizeEv W
_ZNK9__gnu_cxx17__normal_iteratorIP5BlockSt6vectorIS1_SaIS1_EEE4baseEv W
_ZNKSt12_Vector_baseI5BlockSaIS0_EE19_M_get_Tp_allocatorEv W
_ZNKSt6chrono10time_pointINS_3_V212system_clockENS_8durationIlSt5ratioILl1ELl1000000000EEEEE16time_since_epochEv W
_ZNKSt6chrono8durationIlSt5ratioILl1ELl1000000000EEE5countEv W
_ZNKSt6chrono8durationIlSt5ratioILl1ELl1000EEE5countEv W
_ZNKSt6chrono8durationIlSt5ratioILl1ELl1EEE5countEv W
_ZNKSt6vectorI5BlockSaIS0_EE12_M_check_lenEmPKc W
_ZNKSt6vectorI5BlockSaIS0_EE4sizeEv W
_ZNKSt6vectorI5BlockSaIS0_EE8max_sizeEv W
_ZNSaI5BlockEC1Ev W
_ZNSaI5BlockEC2Ev W
_ZNSaI5BlockED1Ev W
_ZNSaI5BlockED2Ev W
_ZNSt12_Destroy_auxILb0EE9__destroyIP5BlockEEvT_S4_ W
_ZNSt12_Vector_baseI5BlockSaIS0_EE11_M_allocateEm W
_ZNSt12_Vector_baseI5BlockSaIS0_EE12_Vector_implC1Ev W
_ZNSt12_Vector_baseI5BlockSaIS0_EE12_Vector_implC2Ev W
_ZNSt12_Vector_baseI5BlockSaIS0_EE12_Vector_implD1Ev W
_ZNSt12_Vector_baseI5BlockSaIS0_EE12_Vector_implD2Ev W
_ZNSt12_Vector_baseI5BlockSaIS0_EE13_M_deallocateEPS0_m W
_ZNSt12_Vector_baseI5BlockSaIS0_EE17_Vector_impl_dataC1Ev W
_ZNSt12_Vector_baseI5BlockSaIS0_EE17_Vector_impl_dataC2Ev W
_ZNSt12_Vector_baseI5BlockSaIS0_EE19_M_get_Tp_allocatorEv W
_ZNSt12_Vector_baseI5BlockSaIS0_EEC1Ev W
_ZNSt12_Vector_baseI5BlockSaIS0_EEC2Ev W
_ZNSt12_Vector_baseI5BlockSaIS0_EED1Ev W
_ZNSt12_Vector_baseI5BlockSaIS0_EED2Ev W
_ZNSt16allocator_traitsISaI5BlockEE10deallocateERS1_PS0_m W
_ZNSt16allocator_traitsISaI5BlockEE7destroyIS0_EEvRS1_PT_ W
_ZNSt16allocator_traitsISaI5BlockEE8allocateERS1_m W
_ZNSt16allocator_traitsISaI5BlockEE8max_sizeERKS1_ W
_ZNSt16allocator_traitsISaI5BlockEE9constructIS0_JRKS0_EEEvRS1_PT_DpOT0_ W
_ZNSt16allocator_traitsISaI5BlockEE9constructIS0_JS0_EEEvRS1_PT_DpOT0_ W
_ZNSt6chrono13duration_castINS_8durationIlSt5ratioILl1ELl1000EEEElS2_ILl1ELl1000000000EEEENSt9enable_ifIXsrNS_13__is_durationIT_EE5valueES8_E4typeERKNS1_IT0_T1_EE W
_ZNSt6chrono13duration_castINS_8durationIlSt5ratioILl1ELl1EEEElS2_ILl1ELl1000000000EEEENSt9enable_ifIXsrNS_13__is_durationIT_EE5valueES8_E4typeERKNS1_IT0_T1_EE W
_ZNSt6chrono20__duration_cast_implINS_8durationIlSt5ratioILl1ELl1000EEEES2_ILl1ELl1000000EElLb1ELb0EE6__castIlS2_ILl1ELl1000000000EEEES4_RKNS1_IT_T0_EE W
_ZNSt6chrono20__duration_cast_implINS_8durationIlSt5ratioILl1ELl1EEEES2_ILl1ELl1000000000EElLb1ELb0EE6__castIlS5_EES4_RKNS1_IT_T0_EE W
_ZNSt6chrono8durationIlSt5ratioILl1ELl1000EEEC1IlvEERKT_ W
_ZNSt6chrono8durationIlSt5ratioILl1ELl1000EEEC2IlvEERKT_ W
_ZNSt6chrono8durationIlSt5ratioILl1ELl1EEEC1IlvEERKT_ W
_ZNSt6vectorI5BlockSaIS0_EE11_S_max_sizeERKS1_ W
_ZNSt6vectorI5BlockSaIS0_EE11_S_relocateEPS0_S3_S3_RS1_ W
_ZNSt6vectorI5BlockSaIS0_EE14_S_do_relocateEPS0_S3_S3_RS1_St17integral_constantIbLb1EE W
_ZNSt6vectorI5BlockSaIS0_EE17_M_realloc_insertIJRKS0_EEEvN9__gnu_cxx17__normal_iteratorIPS0_S2_EEDpOT_ W
_ZNSt6vectorI5BlockSaIS0_EE3endEv W
_ZNSt6vectorI5BlockSaIS0_EE5beginEv W
_ZNSt6vectorI5BlockSaIS0_EE9push_backERKS0_ W
_ZNSt6vectorI5BlockSaIS0_EEC1Ev W
_ZNSt6vectorI5BlockSaIS0_EEC2Ev W
_ZNSt6vectorI5BlockSaIS0_EED1Ev W
_ZNSt6vectorI5BlockSaIS0_EED2Ev W
_ZNSt6vectorI5BlockSaIS0_EEixEm W
_ZNSt7__cxx1112basic_stringIcSt11char_traitsIcESaIcEE12_Alloc_hiderD1Ev W
_ZNSt7__cxx1112basic_stringIcSt11char_traitsIcESaIcEE12_Alloc_hiderD2Ev W
_ZNSt7__cxx1112basic_stringIcSt11char_traitsIcESaIcEEC1IS3_EEmcRKS3_ W
_ZNSt7__cxx1112basic_stringIcSt11char_traitsIcESaIcEEC2IS3_EEmcRKS3_ W
_ZNSt7__cxx119to_stringEm W
_ZNSt7__cxx119to_stringEx W
_ZNSt8__detail14__to_chars_lenImEEjT_i W
_ZNSt8__detail14__to_chars_lenIyEEjT_i W
_ZNSt8__detail18__to_chars_10_implImEEvPcjT_ W
_ZNSt8__detail18__to_chars_10_implIyEEvPcjT_ W
_ZnwmPv W
_ZSt11__addressofI5BlockEPT_RS1_ W
_ZSt12__niter_baseIP5BlockET_S2_ W
_ZSt12__relocate_aIP5BlockS1_SaIS0_EET0_T_S4_S3_RT1_ W
_ZSt14__relocate_a_1IP5BlockS1_SaIS0_EET0_T_S4_S3_RT1_ W
_ZSt19__relocate_object_aI5BlockS0_SaIS0_EEvPT_PT0_RT1_ W
_ZSt3maxImERKT_S2_S2_ W
_ZSt3minImERKT_S2_S2_ W
_ZSt4moveIR5BlockEONSt16remove_referenceIT_E4typeEOS3_ W
_ZSt4moveIRNSt7__cxx1112basic_stringIcSt11char_traitsIcESaIcEEEEONSt16remove_referenceIT_E4typeEOS8_ W
_ZSt7forwardI5BlockEOT_RNSt16remove_referenceIS1_E4typeE W
_ZSt7forwardIRK5BlockEOT_RNSt16remove_referenceIS3_E4typeE W
_ZSt8_DestroyI5BlockEvPT_ W
_ZSt8_DestroyIP5BlockEvT_S2_ W
_ZSt8_DestroyIP5BlockS0_EvT_S2_RSaIT0_E W
_ZStplIcSt11char_traitsIcESaIcEENSt7__cxx1112basic_stringIT_T0_T1_EEOS8_PKS5_ W
_ZStplIcSt11char_traitsIcESaIcEENSt7__cxx1112basic_stringIT_T0_T1_EEOS8_RKS8_ W
_ZStplIcSt11char_traitsIcESaIcEENSt7__cxx1112basic_stringIT_T0_T1_EEOS8_S9_ W
_ZStplIcSt11char_traitsIcESaIcEENSt7__cxx1112basic_stringIT_T0_T1_EEPKS5_OS8_ W
_ZZNSt8__detail18__to_chars_10_implImEEvPcjT_E8__digits u
_ZZNSt8__detail18__to_chars_10_implIyEEvPcjT_E8__digits u
